; Function Attrs: mustprogress nounwind uwtable
define hidden void @_ZN20ShenandoahHeapRegion11do_uncommitEv(ptr noundef nonnull align 8 dereferenceable(96) %0) local_unnamed_addr #0 align 2 {
  %2 = load ptr, ptr @_ZN8Universe14_collectedHeapE, align 8
  %3 = getelementptr inbounds i8, ptr %2, i64 536
  %4 = load i8, ptr %3, align 8
  %5 = trunc i8 %4 to i1
  br i1 %5, label %12, label %6

6:                                                ; preds = %1
  %7 = getelementptr inbounds i8, ptr %0, i64 8
  %8 = load ptr, ptr %7, align 8
  %9 = load i64, ptr @_ZN20ShenandoahHeapRegion15RegionSizeBytesE, align 8
  %10 = tail call noundef zeroext i1 @_ZN2os15uncommit_memoryEPcmb(ptr noundef %8, i64 noundef %9, i1 noundef zeroext false) #18
  br i1 %10, label %12, label %11

11:                                               ; preds = %6
  tail call void @_Z25report_java_out_of_memoryPKc(ptr noundef nonnull @.str.67) #18
  br label %12

12:                                               ; preds = %11, %6, %1
  %13 = tail call noundef zeroext i1 @_ZN14ShenandoahHeap21uncommit_bitmap_sliceEP20ShenandoahHeapRegion(ptr noundef nonnull align 8 dereferenceable(2657) %2, ptr noundef nonnull %0) #18
  br i1 %13, label %15, label %14

14:                                               ; preds = %12
  tail call void @_Z25report_java_out_of_memoryPKc(ptr noundef nonnull @.str.68) #18
  br label %15

15:                                               ; preds = %14, %12
  %16 = load i64, ptr @_ZN20ShenandoahHeapRegion15RegionSizeBytesE, align 8
  tail call void @_ZN14ShenandoahHeap18decrease_committedEm(ptr noundef nonnull align 8 dereferenceable(2657) %2, i64 noundef %16) #18
  ret void
}